target datalayout = "e-m:e-p270:32:32-p271:32:32-p272:64:64-i64:64-i128:128-f80:128-n8:16:32:64-S128"
target triple = "x86_64-pc-linux-gnu"

@.str.85 = private unnamed_addr constant [16 x i8] c"lldp.orgtlv.oui\00", align 1
@.str.799 = private unnamed_addr constant [30 x i8] c"Link Layer Discovery Protocol\00", align 1
@.str.800 = private unnamed_addr constant [5 x i8] c"LLDP\00", align 1
@.str.801 = private unnamed_addr constant [5 x i8] c"lldp\00", align 1
@proto_lldp = internal global i32 0, align 4
@lldp_handle = internal global ptr null, align 8
@.str.802 = private unnamed_addr constant [22 x i8] c"column_info_selection\00", align 1
@.str.803 = private unnamed_addr constant [33 x i8] c"Select Column Info Display Style\00", align 1
@.str.804 = private unnamed_addr constant [83 x i8] c"Which Information will be showed at Column Information is decided by the selection\00", align 1
@column_info_selection = internal global i32 1, align 4
@.str.805 = private unnamed_addr constant [24 x i8] c"assume_unrecognized_tlv\00", align 1
@.str.806 = private unnamed_addr constant [24 x i8] c"Assume unrecognized TLV\00", align 1
@.str.807 = private unnamed_addr constant [124 x i8] c"If checked, assume an unrecognized TLV type should be consumed and treated as an LLDP TLV.  Otherwise, end LLDP dissection.\00", align 1
@assume_unrecognized_tlv = internal global i8 0, align 1
@.str.808 = private unnamed_addr constant [9 x i8] c"LLDP OUI\00", align 1
@oui_unique_code_table = internal global ptr null, align 8

; Function Attrs: null_pointer_is_valid sspstrong uwtable
define hidden void @proto_register_lldp() #0 {
  %1 = alloca ptr, align 8
  %2 = alloca ptr, align 8
  call void @llvm.lifetime.start.p0(i64 8, ptr %1) #9
  call void @llvm.lifetime.start.p0(i64 8, ptr %2) #9
  %3 = call i32 @proto_register_protocol(ptr noundef @.str.799, ptr noundef @.str.800, ptr noundef @.str.801)
  store i32 %3, ptr @proto_lldp, align 4
  %4 = load i32, ptr @proto_lldp, align 4
  %5 = call ptr @register_dissector(ptr noundef @.str.801, ptr noundef @dissect_lldp, i32 noundef %4)
  store ptr %5, ptr @lldp_handle, align 8
  %6 = load i32, ptr @proto_lldp, align 4
  %7 = call ptr @prefs_register_protocol(i32 noundef %6, ptr noundef null)
  store ptr %7, ptr %1, align 8
  %8 = load ptr, ptr %1, align 8
  call void @prefs_register_enum_preference(ptr noundef %8, ptr noundef @.str.802, ptr noundef @.str.803, ptr noundef @.str.804, ptr noundef @column_info_selection, ptr noundef @proto_register_lldp.column_info_options, i1 noundef zeroext false)
  %9 = load ptr, ptr %1, align 8
  call void @prefs_register_bool_preference(ptr noundef %9, ptr noundef @.str.805, ptr noundef @.str.806, ptr noundef @.str.807, ptr noundef @assume_unrecognized_tlv)
  %10 = load i32, ptr @proto_lldp, align 4
  call void @proto_register_field_array(i32 noundef %10, ptr noundef @proto_register_lldp.hf, i32 noundef 416)
  call void @proto_register_subtree_array(ptr noundef @proto_register_lldp.ett, i32 noundef 79)
  %11 = load i32, ptr @proto_lldp, align 4
  %12 = call ptr @register_dissector_table(ptr noundef @.str.85, ptr noundef @.str.808, i32 noundef %11, i32 noundef 6, i32 noundef 2)
  store ptr %12, ptr @oui_unique_code_table, align 8
  %13 = load i32, ptr @proto_lldp, align 4
  %14 = call ptr @expert_register_protocol(i32 noundef %13)
  store ptr %14, ptr %2, align 8
  %15 = load ptr, ptr %2, align 8
  call void @expert_register_field_array(ptr noundef %15, ptr noundef @proto_register_lldp.ei, i32 noundef 5)
  call void @llvm.lifetime.end.p0(i64 8, ptr %2) #9
  call void @llvm.lifetime.end.p0(i64 8, ptr %1) #9
  ret void
}