; Function Attrs: null_pointer_is_valid sspstrong uwtable
define hidden void @proto_register_lldp() local_unnamed_addr #0 {
  %1 = tail call i32 @proto_register_protocol(ptr noundef nonnull @.str.799, ptr noundef nonnull @.str.800, ptr noundef nonnull @.str.801)
  store i32 %1, ptr @proto_lldp, align 4
  %2 = tail call ptr @register_dissector(ptr noundef nonnull @.str.801, ptr noundef nonnull @dissect_lldp, i32 noundef %1)
  store ptr %2, ptr @lldp_handle, align 8
  %3 = load i32, ptr @proto_lldp, align 4
  %4 = tail call ptr @prefs_register_protocol(i32 noundef %3, ptr noundef null)
  tail call void @prefs_register_enum_preference(ptr noundef %4, ptr noundef nonnull @.str.802, ptr noundef nonnull @.str.803, ptr noundef nonnull @.str.804, ptr noundef nonnull @column_info_selection, ptr noundef nonnull @proto_register_lldp.column_info_options, i1 noundef zeroext false)
  tail call void @prefs_register_bool_preference(ptr noundef %4, ptr noundef nonnull @.str.805, ptr noundef nonnull @.str.806, ptr noundef nonnull @.str.807, ptr noundef nonnull @assume_unrecognized_tlv)
  %5 = load i32, ptr @proto_lldp, align 4
  tail call void @proto_register_field_array(i32 noundef %5, ptr noundef nonnull @proto_register_lldp.hf, i32 noundef 416)
  tail call void @proto_register_subtree_array(ptr noundef nonnull @proto_register_lldp.ett, i32 noundef 79)
  %6 = load i32, ptr @proto_lldp, align 4
  %7 = tail call ptr @register_dissector_table(ptr noundef nonnull @.str.85, ptr noundef nonnull @.str.808, i32 noundef %6, i32 noundef 6, i32 noundef 2)
  store ptr %7, ptr @oui_unique_code_table, align 8
  %8 = load i32, ptr @proto_lldp, align 4
  %9 = tail call ptr @expert_register_protocol(i32 noundef %8)
  tail call void @expert_register_field_array(ptr noundef %9, ptr noundef nonnull @proto_register_lldp.ei, i32 noundef 5)
  ret void
}